; ModuleID = 'source-C-CXX/52/703.c'
source_filename = "source-C-CXX/52/703.c"
target datalayout = "e-m:e-p270:32:32-p271:32:32-p272:64:64-i64:64-f80:128-n8:16:32:64-S128"
target triple = "x86_64-pc-linux-gnu"

@.str = private unnamed_addr constant [3 x i8] c"%d\00", align 1
@.str.1 = private unnamed_addr constant [4 x i8] c",%d\00", align 1

; Function Attrs: nofree nounwind sspstrong uwtable
define dso_local void @main() local_unnamed_addr #0 {
  %1 = alloca i32, align 4
  %2 = alloca [100 x i32], align 16
  %3 = bitcast i32* %1 to i8*
  call void @llvm.lifetime.start.p0i8(i64 4, i8* nonnull %3) #4
  %4 = bitcast [100 x i32]* %2 to i8*
  call void @llvm.lifetime.start.p0i8(i64 400, i8* nonnull %4) #4
  %5 = call i32 (i8*, ...) @__isoc99_scanf(i8* getelementptr inbounds ([3 x i8], [3 x i8]* @.str, i64 0, i64 0), i32* nonnull %1)
  %6 = getelementptr inbounds [100 x i32], [100 x i32]* %2, i64 0, i64 0
  %7 = load i32, i32* %1, align 4, !tbaa !5
  %8 = icmp sgt i32 %7, 0
  br i1 %8, label %9, label %60

9:                                                ; preds = %0, %9
  %10 = phi i64 [ %13, %9 ], [ 0, %0 ]
  %11 = getelementptr inbounds [100 x i32], [100 x i32]* %2, i64 0, i64 %10
  %12 = call i32 (i8*, ...) @__isoc99_scanf(i8* getelementptr inbounds ([3 x i8], [3 x i8]* @.str, i64 0, i64 0), i32* nonnull %11)
  %13 = add nuw nsw i64 %10, 1
  %14 = load i32, i32* %1, align 4, !tbaa !5
  %15 = sext i32 %14 to i64
  %16 = icmp slt i64 %13, %15
  br i1 %16, label %9, label %17, !llvm.loop !9

17:                                               ; preds = %9
  %18 = icmp sgt i32 %14, 0
  br i1 %18, label %19, label %60

19:                                               ; preds = %17
  %20 = zext i32 %14 to i64
  %21 = add nsw i64 %20, -2
  br label %25

22:                                               ; preds = %44, %83, %25
  %23 = add nuw nsw i64 %27, 1
  %24 = icmp eq i64 %28, %20
  br i1 %24, label %60, label %25, !llvm.loop !11

25:                                               ; preds = %22, %19
  %26 = phi i64 [ 0, %19 ], [ %28, %22 ]
  %27 = phi i64 [ 1, %19 ], [ %23, %22 ]
  %28 = add nuw nsw i64 %26, 1
  %29 = getelementptr inbounds [100 x i32], [100 x i32]* %2, i64 0, i64 %26
  %30 = icmp ult i64 %28, %20
  br i1 %30, label %31, label %22

31:                                               ; preds = %25
  %32 = xor i64 %26, -1
  %33 = add nsw i64 %32, %20
  %34 = and i64 %33, 1
  %35 = icmp eq i64 %34, 0
  br i1 %35, label %44, label %36

36:                                               ; preds = %31
  %37 = load i32, i32* %29, align 4, !tbaa !5
  %38 = getelementptr inbounds [100 x i32], [100 x i32]* %2, i64 0, i64 %27
  %39 = load i32, i32* %38, align 4, !tbaa !5
  %40 = icmp eq i32 %37, %39
  br i1 %40, label %41, label %42

41:                                               ; preds = %36
  store i32 12345, i32* %38, align 4, !tbaa !5
  br label %42

42:                                               ; preds = %41, %36
  %43 = add nuw nsw i64 %27, 1
  br label %44

44:                                               ; preds = %42, %31
  %45 = phi i64 [ %43, %42 ], [ %27, %31 ]
  %46 = icmp eq i64 %21, %26
  br i1 %46, label %22, label %47

47:                                               ; preds = %44, %83
  %48 = phi i64 [ %84, %83 ], [ %45, %44 ]
  %49 = load i32, i32* %29, align 4, !tbaa !5
  %50 = getelementptr inbounds [100 x i32], [100 x i32]* %2, i64 0, i64 %48
  %51 = load i32, i32* %50, align 4, !tbaa !5
  %52 = icmp eq i32 %49, %51
  br i1 %52, label %53, label %54

53:                                               ; preds = %47
  store i32 12345, i32* %50, align 4, !tbaa !5
  br label %54

54:                                               ; preds = %53, %47
  %55 = add nuw nsw i64 %48, 1
  %56 = load i32, i32* %29, align 4, !tbaa !5
  %57 = getelementptr inbounds [100 x i32], [100 x i32]* %2, i64 0, i64 %55
  %58 = load i32, i32* %57, align 4, !tbaa !5
  %59 = icmp eq i32 %56, %58
  br i1 %59, label %82, label %83

60:                                               ; preds = %22, %0, %17
  %61 = load i32, i32* %6, align 16, !tbaa !5
  %62 = call i32 (i8*, ...) @printf(i8* nonnull dereferenceable(1) getelementptr inbounds ([3 x i8], [3 x i8]* @.str, i64 0, i64 0), i32 %61)
  %63 = load i32, i32* %1, align 4, !tbaa !5
  %64 = icmp sgt i32 %63, 1
  br i1 %64, label %65, label %81

65:                                               ; preds = %60
  %66 = getelementptr inbounds [100 x i32], [100 x i32]* %2, i64 0, i64 1
  br label %67

67:                                               ; preds = %65, %76
  %68 = phi i32 [ %77, %76 ], [ %63, %65 ]
  %69 = phi i32* [ %78, %76 ], [ %66, %65 ]
  %70 = phi i32 [ %79, %76 ], [ 1, %65 ]
  %71 = load i32, i32* %69, align 4, !tbaa !5
  %72 = icmp eq i32 %71, 12345
  br i1 %72, label %76, label %73

73:                                               ; preds = %67
  %74 = call i32 (i8*, ...) @printf(i8* nonnull dereferenceable(1) getelementptr inbounds ([4 x i8], [4 x i8]* @.str.1, i64 0, i64 0), i32 %71)
  %75 = load i32, i32* %1, align 4, !tbaa !5
  br label %76

76:                                               ; preds = %73, %67
  %77 = phi i32 [ %75, %73 ], [ %68, %67 ]
  %78 = getelementptr inbounds i32, i32* %69, i64 1
  %79 = add nuw nsw i32 %70, 1
  %80 = icmp slt i32 %79, %77
  br i1 %80, label %67, label %81, !llvm.loop !12

81:                                               ; preds = %76, %60
  call void @llvm.lifetime.end.p0i8(i64 400, i8* nonnull %4) #4
  call void @llvm.lifetime.end.p0i8(i64 4, i8* nonnull %3) #4
  ret void

82:                                               ; preds = %54
  store i32 12345, i32* %57, align 4, !tbaa !5
  br label %83

83:                                               ; preds = %82, %54
  %84 = add nuw nsw i64 %48, 2
  %85 = icmp eq i64 %84, %20
  br i1 %85, label %22, label %47, !llvm.loop !13
}

; Function Attrs: argmemonly mustprogress nofree nosync nounwind willreturn
declare void @llvm.lifetime.start.p0i8(i64 immarg, i8* nocapture) #1

; Function Attrs: nofree nounwind
declare noundef i32 @__isoc99_scanf(i8* nocapture noundef readonly, ...) local_unnamed_addr #2

; Function Attrs: nofree norecurse nosync nounwind sspstrong uwtable
define dso_local void @f(i32* nocapture %0, i32 %1) local_unnamed_addr #3 {
  %3 = icmp sgt i32 %1, 0
  br i1 %3, label %4, label %46

4:                                                ; preds = %2
  %5 = zext i32 %1 to i64
  %6 = zext i32 %1 to i64
  %7 = add nsw i64 %6, -2
  br label %11

8:                                                ; preds = %30, %48, %11
  %9 = add nuw nsw i64 %13, 1
  %10 = icmp eq i64 %14, %6
  br i1 %10, label %46, label %11, !llvm.loop !11

11:                                               ; preds = %4, %8
  %12 = phi i64 [ 0, %4 ], [ %14, %8 ]
  %13 = phi i64 [ 1, %4 ], [ %9, %8 ]
  %14 = add nuw nsw i64 %12, 1
  %15 = getelementptr inbounds i32, i32* %0, i64 %12
  %16 = icmp ult i64 %14, %5
  br i1 %16, label %17, label %8

17:                                               ; preds = %11
  %18 = xor i64 %12, -1
  %19 = add nsw i64 %18, %6
  %20 = and i64 %19, 1
  %21 = icmp eq i64 %20, 0
  br i1 %21, label %30, label %22

22:                                               ; preds = %17
  %23 = load i32, i32* %15, align 4, !tbaa !5
  %24 = getelementptr inbounds i32, i32* %0, i64 %13
  %25 = load i32, i32* %24, align 4, !tbaa !5
  %26 = icmp eq i32 %23, %25
  br i1 %26, label %27, label %28

27:                                               ; preds = %22
  store i32 12345, i32* %24, align 4, !tbaa !5
  br label %28

28:                                               ; preds = %27, %22
  %29 = add nuw nsw i64 %13, 1
  br label %30

30:                                               ; preds = %28, %17
  %31 = phi i64 [ %29, %28 ], [ %13, %17 ]
  %32 = icmp eq i64 %7, %12
  br i1 %32, label %8, label %33

33:                                               ; preds = %30, %48
  %34 = phi i64 [ %49, %48 ], [ %31, %30 ]
  %35 = load i32, i32* %15, align 4, !tbaa !5
  %36 = getelementptr inbounds i32, i32* %0, i64 %34
  %37 = load i32, i32* %36, align 4, !tbaa !5
  %38 = icmp eq i32 %35, %37
  br i1 %38, label %39, label %40

39:                                               ; preds = %33
  store i32 12345, i32* %36, align 4, !tbaa !5
  br label %40

40:                                               ; preds = %33, %39
  %41 = add nuw nsw i64 %34, 1
  %42 = load i32, i32* %15, align 4, !tbaa !5
  %43 = getelementptr inbounds i32, i32* %0, i64 %41
  %44 = load i32, i32* %43, align 4, !tbaa !5
  %45 = icmp eq i32 %42, %44
  br i1 %45, label %47, label %48

46:                                               ; preds = %8, %2
  ret void

47:                                               ; preds = %40
  store i32 12345, i32* %43, align 4, !tbaa !5
  br label %48

48:                                               ; preds = %47, %40
  %49 = add nuw nsw i64 %34, 2
  %50 = icmp eq i64 %49, %6
  br i1 %50, label %8, label %33, !llvm.loop !13
}

; Function Attrs: nofree nounwind
declare noundef i32 @printf(i8* nocapture noundef readonly, ...) local_unnamed_addr #2

; Function Attrs: argmemonly mustprogress nofree nosync nounwind willreturn
declare void @llvm.lifetime.end.p0i8(i64 immarg, i8* nocapture) #1


!llvm.module.flags = !{!0, !1, !2, !3}
!llvm.ident = !{!4}

!0 = !{i32 1, !"wchar_size", i32 4}
!1 = !{i32 7, !"PIC Level", i32 2}
!2 = !{i32 7, !"PIE Level", i32 2}
!3 = !{i32 7, !"uwtable", i32 1}
!4 = !{!"clang version 13.0.0"}
!5 = !{!6, !6, i64 0}
!6 = !{!"int", !7, i64 0}
!7 = !{!"omnipotent char", !8, i64 0}
!8 = !{!"Simple C/C++ TBAA"}
!9 = distinct !{!9, !10}
!10 = !{!"llvm.loop.mustprogress"}
!11 = distinct !{!11, !10}
!12 = distinct !{!12, !10}
!13 = distinct !{!13, !10}
